target datalayout = "e-m:e-p270:32:32-p271:32:32-p272:64:64-i64:64-i128:128-f80:128-n8:16:32:64-S128"
target triple = "x86_64-unknown-linux-gnu"

%"struct.std::_Vector_base" = type { %"struct.std::_Vector_base<Assimp::Blender::PointP2T, std::allocator<Assimp::Blender::PointP2T>>::_Vector_impl" }
%"struct.std::_Vector_base<Assimp::Blender::PointP2T, std::allocator<Assimp::Blender::PointP2T>>::_Vector_impl" = type { %"struct.std::_Vector_base<Assimp::Blender::PointP2T, std::allocator<Assimp::Blender::PointP2T>>::_Vector_impl_data" }
%"struct.std::_Vector_base<Assimp::Blender::PointP2T, std::allocator<Assimp::Blender::PointP2T>>::_Vector_impl_data" = type { ptr, ptr, ptr }
%class.aiVector3t = type { float, float, float }
%class.aiMatrix4x4t = type { float, float, float, float, float, float, float, float, float, float, float, float, float, float, float, float }
%"struct.Assimp::Blender::PointP2T" = type { %class.aiVector3t, %"struct.p2t::Point", i32, i32 }
%"struct.p2t::Point" = type { double, double, %"class.std::vector.16" }
%"class.std::vector.16" = type { %"struct.std::_Vector_base.17" }
%"struct.std::_Vector_base.17" = type { %"struct.std::_Vector_base<p2t::Edge *, std::allocator<p2t::Edge *>>::_Vector_impl" }
%"struct.std::_Vector_base<p2t::Edge *, std::allocator<p2t::Edge *>>::_Vector_impl" = type { %"struct.std::_Vector_base<p2t::Edge *, std::allocator<p2t::Edge *>>::_Vector_impl_data" }
%"struct.std::_Vector_base<p2t::Edge *, std::allocator<p2t::Edge *>>::_Vector_impl_data" = type { ptr, ptr, ptr }

; Function Attrs: mustprogress nounwind uwtable
define linkonce_odr hidden void @_ZN10aiVector3tIfEC2Ev(ptr noundef nonnull align 4 dereferenceable(12) %this) unnamed_addr #0 comdat align 2 {
entry:
  %this.addr = alloca ptr, align 8
  store ptr %this, ptr %this.addr, align 8
  %this1 = load ptr, ptr %this.addr, align 8
  %x = getelementptr inbounds %class.aiVector3t, ptr %this1, i32 0, i32 0
  store float 0.000000e+00, ptr %x, align 4
  %y = getelementptr inbounds %class.aiVector3t, ptr %this1, i32 0, i32 1
  store float 0.000000e+00, ptr %y, align 4
  %z = getelementptr inbounds %class.aiVector3t, ptr %this1, i32 0, i32 2
  store float 0.000000e+00, ptr %z, align 4
  ret void
}

; Function Attrs: mustprogress nounwind uwtable
define linkonce_odr hidden void @_ZN3p2t5Point3setEdd(ptr noundef nonnull align 8 dereferenceable(40) %this, double noundef %x_, double noundef %y_) #0 comdat align 2 {
entry:
  %this.addr = alloca ptr, align 8
  %x_.addr = alloca double, align 8
  %y_.addr = alloca double, align 8
  store ptr %this, ptr %this.addr, align 8
  store double %x_, ptr %x_.addr, align 8
  store double %y_, ptr %y_.addr, align 8
  %this1 = load ptr, ptr %this.addr, align 8
  %0 = load double, ptr %x_.addr, align 8
  %x = getelementptr inbounds %"struct.p2t::Point", ptr %this1, i32 0, i32 0
  store double %0, ptr %x, align 8
  %1 = load double, ptr %y_.addr, align 8
  %y = getelementptr inbounds %"struct.p2t::Point", ptr %this1, i32 0, i32 1
  store double %1, ptr %y, align 8
  ret void
}

; Function Attrs: mustprogress nounwind uwtable
define linkonce_odr hidden { <2 x float>, float } @_ZmlIfE10aiVector3tIT_ERK12aiMatrix4x4tIS1_ERKS2_(ptr noundef nonnull align 4 dereferenceable(64) %pMatrix, ptr noundef nonnull align 4 dereferenceable(12) %pVector) #0 comdat {
entry:
  %retval = alloca %class.aiVector3t, align 4
  %pMatrix.addr = alloca ptr, align 8
  %pVector.addr = alloca ptr, align 8
  %retval.coerce = alloca { <2 x float>, float }, align 8
  store ptr %pMatrix, ptr %pMatrix.addr, align 8
  store ptr %pVector, ptr %pVector.addr, align 8
  call void @_ZN10aiVector3tIfEC2Ev(ptr noundef nonnull align 4 dereferenceable(12) %retval) #14
  %0 = load ptr, ptr %pMatrix.addr, align 8
  %a1 = getelementptr inbounds %class.aiMatrix4x4t, ptr %0, i32 0, i32 0
  %1 = load float, ptr %a1, align 4
  %2 = load ptr, ptr %pVector.addr, align 8
  %x = getelementptr inbounds %class.aiVector3t, ptr %2, i32 0, i32 0
  %3 = load float, ptr %x, align 4
  %4 = load ptr, ptr %pMatrix.addr, align 8
  %a2 = getelementptr inbounds %class.aiMatrix4x4t, ptr %4, i32 0, i32 1
  %5 = load float, ptr %a2, align 4
  %6 = load ptr, ptr %pVector.addr, align 8
  %y = getelementptr inbounds %class.aiVector3t, ptr %6, i32 0, i32 1
  %7 = load float, ptr %y, align 4
  %mul1 = fmul float %5, %7
  %8 = call float @llvm.fmuladd.f32(float %1, float %3, float %mul1)
  %9 = load ptr, ptr %pMatrix.addr, align 8
  %a3 = getelementptr inbounds %class.aiMatrix4x4t, ptr %9, i32 0, i32 2
  %10 = load float, ptr %a3, align 4
  %11 = load ptr, ptr %pVector.addr, align 8
  %z = getelementptr inbounds %class.aiVector3t, ptr %11, i32 0, i32 2
  %12 = load float, ptr %z, align 4
  %13 = call float @llvm.fmuladd.f32(float %10, float %12, float %8)
  %14 = load ptr, ptr %pMatrix.addr, align 8
  %a4 = getelementptr inbounds %class.aiMatrix4x4t, ptr %14, i32 0, i32 3
  %15 = load float, ptr %a4, align 4
  %add = fadd float %13, %15
  %x2 = getelementptr inbounds %class.aiVector3t, ptr %retval, i32 0, i32 0
  store float %add, ptr %x2, align 4
  %16 = load ptr, ptr %pMatrix.addr, align 8
  %b1 = getelementptr inbounds %class.aiMatrix4x4t, ptr %16, i32 0, i32 4
  %17 = load float, ptr %b1, align 4
  %18 = load ptr, ptr %pVector.addr, align 8
  %x3 = getelementptr inbounds %class.aiVector3t, ptr %18, i32 0, i32 0
  %19 = load float, ptr %x3, align 4
  %20 = load ptr, ptr %pMatrix.addr, align 8
  %b2 = getelementptr inbounds %class.aiMatrix4x4t, ptr %20, i32 0, i32 5
  %21 = load float, ptr %b2, align 4
  %22 = load ptr, ptr %pVector.addr, align 8
  %y4 = getelementptr inbounds %class.aiVector3t, ptr %22, i32 0, i32 1
  %23 = load float, ptr %y4, align 4
  %mul5 = fmul float %21, %23
  %24 = call float @llvm.fmuladd.f32(float %17, float %19, float %mul5)
  %25 = load ptr, ptr %pMatrix.addr, align 8
  %b3 = getelementptr inbounds %class.aiMatrix4x4t, ptr %25, i32 0, i32 6
  %26 = load float, ptr %b3, align 4
  %27 = load ptr, ptr %pVector.addr, align 8
  %z6 = getelementptr inbounds %class.aiVector3t, ptr %27, i32 0, i32 2
  %28 = load float, ptr %z6, align 4
  %29 = call float @llvm.fmuladd.f32(float %26, float %28, float %24)
  %30 = load ptr, ptr %pMatrix.addr, align 8
  %b4 = getelementptr inbounds %class.aiMatrix4x4t, ptr %30, i32 0, i32 7
  %31 = load float, ptr %b4, align 4
  %add7 = fadd float %29, %31
  %y8 = getelementptr inbounds %class.aiVector3t, ptr %retval, i32 0, i32 1
  store float %add7, ptr %y8, align 4
  %32 = load ptr, ptr %pMatrix.addr, align 8
  %c1 = getelementptr inbounds %class.aiMatrix4x4t, ptr %32, i32 0, i32 8
  %33 = load float, ptr %c1, align 4
  %34 = load ptr, ptr %pVector.addr, align 8
  %x9 = getelementptr inbounds %class.aiVector3t, ptr %34, i32 0, i32 0
  %35 = load float, ptr %x9, align 4
  %36 = load ptr, ptr %pMatrix.addr, align 8
  %c2 = getelementptr inbounds %class.aiMatrix4x4t, ptr %36, i32 0, i32 9
  %37 = load float, ptr %c2, align 4
  %38 = load ptr, ptr %pVector.addr, align 8
  %y10 = getelementptr inbounds %class.aiVector3t, ptr %38, i32 0, i32 1
  %39 = load float, ptr %y10, align 4
  %mul11 = fmul float %37, %39
  %40 = call float @llvm.fmuladd.f32(float %33, float %35, float %mul11)
  %41 = load ptr, ptr %pMatrix.addr, align 8
  %c3 = getelementptr inbounds %class.aiMatrix4x4t, ptr %41, i32 0, i32 10
  %42 = load float, ptr %c3, align 4
  %43 = load ptr, ptr %pVector.addr, align 8
  %z12 = getelementptr inbounds %class.aiVector3t, ptr %43, i32 0, i32 2
  %44 = load float, ptr %z12, align 4
  %45 = call float @llvm.fmuladd.f32(float %42, float %44, float %40)
  %46 = load ptr, ptr %pMatrix.addr, align 8
  %c4 = getelementptr inbounds %class.aiMatrix4x4t, ptr %46, i32 0, i32 11
  %47 = load float, ptr %c4, align 4
  %add13 = fadd float %45, %47
  %z14 = getelementptr inbounds %class.aiVector3t, ptr %retval, i32 0, i32 2
  store float %add13, ptr %z14, align 4
  call void @llvm.memcpy.p0.p0.i64(ptr align 8 %retval.coerce, ptr align 4 %retval, i64 12, i1 false)
  %48 = load { <2 x float>, float }, ptr %retval.coerce, align 8
  ret { <2 x float>, float } %48
}

; Function Attrs: mustprogress nounwind uwtable
define linkonce_odr hidden noundef nonnull align 8 dereferenceable(64) ptr @_ZNSt6vectorIN6Assimp7Blender8PointP2TESaIS2_EEixEm(ptr noundef nonnull align 8 dereferenceable(24) %this, i64 noundef %__n) #0 comdat align 2 {
entry:
  %this.addr = alloca ptr, align 8
  %__n.addr = alloca i64, align 8
  store ptr %this, ptr %this.addr, align 8
  store i64 %__n, ptr %__n.addr, align 8
  %this1 = load ptr, ptr %this.addr, align 8
  %_M_impl = getelementptr inbounds %"struct.std::_Vector_base", ptr %this1, i32 0, i32 0
  %_M_start = getelementptr inbounds %"struct.std::_Vector_base<Assimp::Blender::PointP2T, std::allocator<Assimp::Blender::PointP2T>>::_Vector_impl_data", ptr %_M_impl, i32 0, i32 0
  %0 = load ptr, ptr %_M_start, align 8
  %1 = load i64, ptr %__n.addr, align 8
  %add.ptr = getelementptr inbounds %"struct.Assimp::Blender::PointP2T", ptr %0, i64 %1
  ret ptr %add.ptr
}

; Function Attrs: mustprogress nounwind uwtable
define linkonce_odr hidden noundef i64 @_ZNKSt6vectorIN6Assimp7Blender8PointP2TESaIS2_EE4sizeEv(ptr noundef nonnull align 8 dereferenceable(24) %this) #0 comdat align 2 {
entry:
  %this.addr = alloca ptr, align 8
  store ptr %this, ptr %this.addr, align 8
  %this1 = load ptr, ptr %this.addr, align 8
  %_M_impl = getelementptr inbounds %"struct.std::_Vector_base", ptr %this1, i32 0, i32 0
  %_M_finish = getelementptr inbounds %"struct.std::_Vector_base<Assimp::Blender::PointP2T, std::allocator<Assimp::Blender::PointP2T>>::_Vector_impl_data", ptr %_M_impl, i32 0, i32 1
  %0 = load ptr, ptr %_M_finish, align 8
  %_M_impl2 = getelementptr inbounds %"struct.std::_Vector_base", ptr %this1, i32 0, i32 0
  %_M_start = getelementptr inbounds %"struct.std::_Vector_base<Assimp::Blender::PointP2T, std::allocator<Assimp::Blender::PointP2T>>::_Vector_impl_data", ptr %_M_impl2, i32 0, i32 0
  %1 = load ptr, ptr %_M_start, align 8
  %sub.ptr.lhs.cast = ptrtoint ptr %0 to i64
  %sub.ptr.rhs.cast = ptrtoint ptr %1 to i64
  %sub.ptr.sub = sub i64 %sub.ptr.lhs.cast, %sub.ptr.rhs.cast
  %sub.ptr.div = sdiv exact i64 %sub.ptr.sub, 64
  ret i64 %sub.ptr.div
}

; Function Attrs: mustprogress uwtable
define hidden void @_ZNK6Assimp21BlenderTessellatorP2T27TransformAndFlattenVecticesERK12aiMatrix4x4tIfERSt6vectorINS_7Blender8PointP2TESaIS7_EE(ptr noundef nonnull align 8 dereferenceable(8) %this, ptr noundef nonnull align 4 dereferenceable(64) %transform, ptr noundef nonnull align 8 dereferenceable(24) %vertices) #3 align 2 {
entry:
  %this.addr = alloca ptr, align 8
  %transform.addr = alloca ptr, align 8
  %vertices.addr = alloca ptr, align 8
  %i = alloca i64, align 8
  %point = alloca ptr, align 8
  %ref.tmp = alloca %class.aiVector3t, align 4
  %tmp.coerce = alloca { <2 x float>, float }, align 8
  store ptr %this, ptr %this.addr, align 8
  store ptr %transform, ptr %transform.addr, align 8
  store ptr %vertices, ptr %vertices.addr, align 8
  store i64 0, ptr %i, align 8
  br label %for.cond

for.cond:                                         ; preds = %for.inc, %entry
  %0 = load i64, ptr %i, align 8
  %1 = load ptr, ptr %vertices.addr, align 8
  %call = call noundef i64 @_ZNKSt6vectorIN6Assimp7Blender8PointP2TESaIS2_EE4sizeEv(ptr noundef nonnull align 8 dereferenceable(24) %1) #14
  %cmp = icmp ult i64 %0, %call
  br i1 %cmp, label %for.body, label %for.end

for.body:                                         ; preds = %for.cond
  %2 = load ptr, ptr %vertices.addr, align 8
  %3 = load i64, ptr %i, align 8
  %call2 = call noundef nonnull align 8 dereferenceable(64) ptr @_ZNSt6vectorIN6Assimp7Blender8PointP2TESaIS2_EEixEm(ptr noundef nonnull align 8 dereferenceable(24) %2, i64 noundef %3) #14
  store ptr %call2, ptr %point, align 8
  %4 = load ptr, ptr %transform.addr, align 8
  %5 = load ptr, ptr %point, align 8
  %point3D = getelementptr inbounds %"struct.Assimp::Blender::PointP2T", ptr %5, i32 0, i32 0
  %call3 = call { <2 x float>, float } @_ZmlIfE10aiVector3tIT_ERK12aiMatrix4x4tIS1_ERKS2_(ptr noundef nonnull align 4 dereferenceable(64) %4, ptr noundef nonnull align 4 dereferenceable(12) %point3D)
  store { <2 x float>, float } %call3, ptr %tmp.coerce, align 8
  call void @llvm.memcpy.p0.p0.i64(ptr align 4 %ref.tmp, ptr align 8 %tmp.coerce, i64 12, i1 false)
  %6 = load ptr, ptr %point, align 8
  %point3D4 = getelementptr inbounds %"struct.Assimp::Blender::PointP2T", ptr %6, i32 0, i32 0
  call void @llvm.memcpy.p0.p0.i64(ptr align 8 %point3D4, ptr align 4 %ref.tmp, i64 12, i1 false)
  %7 = load ptr, ptr %point, align 8
  %point2D = getelementptr inbounds %"struct.Assimp::Blender::PointP2T", ptr %7, i32 0, i32 1
  %8 = load ptr, ptr %point, align 8
  %point3D5 = getelementptr inbounds %"struct.Assimp::Blender::PointP2T", ptr %8, i32 0, i32 0
  %y = getelementptr inbounds %class.aiVector3t, ptr %point3D5, i32 0, i32 1
  %9 = load float, ptr %y, align 4
  %conv = fpext float %9 to double
  %10 = load ptr, ptr %point, align 8
  %point3D6 = getelementptr inbounds %"struct.Assimp::Blender::PointP2T", ptr %10, i32 0, i32 0
  %z = getelementptr inbounds %class.aiVector3t, ptr %point3D6, i32 0, i32 2
  %11 = load float, ptr %z, align 8
  %conv7 = fpext float %11 to double
  call void @_ZN3p2t5Point3setEdd(ptr noundef nonnull align 8 dereferenceable(40) %point2D, double noundef %conv, double noundef %conv7)
  br label %for.inc

for.inc:                                          ; preds = %for.body
  %12 = load i64, ptr %i, align 8
  %inc = add i64 %12, 1
  store i64 %inc, ptr %i, align 8
  br label %for.cond, !llvm.loop !8

for.end:                                          ; preds = %for.cond
  ret void
}