; Function Attrs: mustprogress nofree norecurse nosync nounwind memory(readwrite, inaccessiblemem: none) uwtable
define hidden void @_ZNK6Assimp21BlenderTessellatorP2T27TransformAndFlattenVecticesERK12aiMatrix4x4tIfERSt6vectorINS_7Blender8PointP2TESaIS7_EE(ptr nocapture noundef nonnull readnone align 8 dereferenceable(8) %this, ptr nocapture noundef nonnull readonly align 4 dereferenceable(64) %transform, ptr nocapture noundef nonnull readonly align 8 dereferenceable(24) %vertices) local_unnamed_addr #5 align 2 {
entry:
  %_M_finish.i = getelementptr inbounds i8, ptr %vertices, i64 8
  %0 = load ptr, ptr %_M_finish.i, align 8
  %1 = load ptr, ptr %vertices, align 8
  %cmp13.not = icmp eq ptr %0, %1
  br i1 %cmp13.not, label %for.end, label %for.body.lr.ph

for.body.lr.ph:                                   ; preds = %entry
  %a2.i = getelementptr inbounds i8, ptr %transform, i64 4
  %a3.i = getelementptr inbounds i8, ptr %transform, i64 8
  %a4.i = getelementptr inbounds i8, ptr %transform, i64 12
  %b1.i = getelementptr inbounds i8, ptr %transform, i64 16
  %b2.i = getelementptr inbounds i8, ptr %transform, i64 20
  %b3.i = getelementptr inbounds i8, ptr %transform, i64 24
  %b4.i = getelementptr inbounds i8, ptr %transform, i64 28
  %c1.i = getelementptr inbounds i8, ptr %transform, i64 32
  %c2.i = getelementptr inbounds i8, ptr %transform, i64 36
  %c3.i = getelementptr inbounds i8, ptr %transform, i64 40
  %c4.i = getelementptr inbounds i8, ptr %transform, i64 44
  br label %for.body

for.body:                                         ; preds = %for.body.lr.ph, %for.body
  %2 = phi ptr [ %1, %for.body.lr.ph ], [ %42, %for.body ]
  %i.014 = phi i64 [ 0, %for.body.lr.ph ], [ %inc, %for.body ]
  %add.ptr.i = getelementptr inbounds %"struct.Assimp::Blender::PointP2T", ptr %2, i64 %i.014
  %3 = load float, ptr %transform, align 4
  %4 = load float, ptr %add.ptr.i, align 4
  %5 = load float, ptr %a2.i, align 4
  %y.i = getelementptr inbounds i8, ptr %add.ptr.i, i64 4
  %6 = load float, ptr %y.i, align 4
  %mul1.i = fmul float %5, %6
  %7 = tail call float @llvm.fmuladd.f32(float %3, float %4, float %mul1.i)
  %8 = load float, ptr %a3.i, align 4
  %z.i = getelementptr inbounds i8, ptr %add.ptr.i, i64 8
  %9 = load float, ptr %z.i, align 4
  %10 = tail call float @llvm.fmuladd.f32(float %8, float %9, float %7)
  %11 = load float, ptr %a4.i, align 4
  %add.i = fadd float %10, %11
  %retval.sroa.0.0.vec.insert.i = insertelement <2 x float> poison, float %add.i, i64 0
  %12 = load <4 x float>, ptr %b1.i, align 4
  %13 = shufflevector <4 x float> %12, <4 x float> poison, <2 x i32> <i32 0, i32 poison>
  %14 = load <4 x float>, ptr %b2.i, align 4
  %15 = shufflevector <4 x float> %14, <4 x float> poison, <2 x i32> <i32 0, i32 poison>
  %16 = load <4 x float>, ptr %b3.i, align 4
  %17 = shufflevector <4 x float> %16, <4 x float> poison, <2 x i32> <i32 0, i32 poison>
  %18 = load <4 x float>, ptr %b4.i, align 4
  %19 = shufflevector <4 x float> %18, <4 x float> poison, <2 x i32> <i32 0, i32 poison>
  %20 = load float, ptr %c1.i, align 4
  %21 = load float, ptr %c2.i, align 4
  %22 = load float, ptr %c3.i, align 4
  %23 = load float, ptr %c4.i, align 4
  %point2D = getelementptr inbounds i8, ptr %add.ptr.i, i64 16
  %24 = insertelement <2 x float> poison, float %6, i64 0
  %25 = shufflevector <2 x float> %24, <2 x float> poison, <2 x i32> zeroinitializer
  %26 = insertelement <2 x float> %15, float %21, i64 1
  %27 = fmul <2 x float> %25, %26
  %28 = insertelement <2 x float> %13, float %20, i64 1
  %29 = insertelement <2 x float> poison, float %4, i64 0
  %30 = shufflevector <2 x float> %29, <2 x float> poison, <2 x i32> zeroinitializer
  %31 = tail call <2 x float> @llvm.fmuladd.v2f32(<2 x float> %28, <2 x float> %30, <2 x float> %27)
  %32 = insertelement <2 x float> %17, float %22, i64 1
  %33 = insertelement <2 x float> poison, float %9, i64 0
  %34 = shufflevector <2 x float> %33, <2 x float> poison, <2 x i32> zeroinitializer
  %35 = tail call <2 x float> @llvm.fmuladd.v2f32(<2 x float> %32, <2 x float> %34, <2 x float> %31)
  %36 = insertelement <2 x float> %19, float %23, i64 1
  %37 = fadd <2 x float> %36, %35
  %38 = shufflevector <2 x float> %retval.sroa.0.0.vec.insert.i, <2 x float> %37, <2 x i32> <i32 0, i32 2>
  store <2 x float> %38, ptr %add.ptr.i, align 8
  %39 = extractelement <2 x float> %37, i64 1
  store float %39, ptr %z.i, align 8
  %40 = fpext <2 x float> %37 to <2 x double>
  store <2 x double> %40, ptr %point2D, align 8
  %inc = add nuw i64 %i.014, 1
  %41 = load ptr, ptr %_M_finish.i, align 8
  %42 = load ptr, ptr %vertices, align 8
  %sub.ptr.lhs.cast.i = ptrtoint ptr %41 to i64
  %sub.ptr.rhs.cast.i = ptrtoint ptr %42 to i64
  %sub.ptr.sub.i = sub i64 %sub.ptr.lhs.cast.i, %sub.ptr.rhs.cast.i
  %sub.ptr.div.i = ashr exact i64 %sub.ptr.sub.i, 6
  %cmp = icmp ult i64 %inc, %sub.ptr.div.i
  br i1 %cmp, label %for.body, label %for.end, !llvm.loop !9

for.end:                                          ; preds = %for.body, %entry
  ret void
}